; Function Attrs: nounwind uwtable
define dso_local i32 @pg_reg_getnumoutarcs(ptr noundef readonly captures(none) %0, i32 noundef %1) local_unnamed_addr #2 {
  %3 = alloca i32, align 4
  call void @llvm.lifetime.start.p0(i64 4, ptr nonnull %3) #5
  %4 = getelementptr inbounds nuw i8, ptr %0, i64 48
  %5 = load ptr, ptr %4, align 8
  %6 = getelementptr inbounds nuw i8, ptr %5, i64 32
  %7 = icmp slt i32 %1, 0
  br i1 %7, label %12, label %8

8:                                                ; preds = %2
  %9 = load i32, ptr %6, align 8
  %.not = icmp slt i32 %1, %9
  br i1 %.not, label %10, label %12

10:                                               ; preds = %8
  store i32 0, ptr %3, align 4
  call fastcc void @traverse_lacons(ptr noundef nonnull %6, i32 noundef %1, ptr noundef %3, ptr noundef null, i32 noundef 0)
  %11 = load i32, ptr %3, align 4
  br label %12

12:                                               ; preds = %2, %8, %10
  %.0 = phi i32 [ %11, %10 ], [ 0, %8 ], [ 0, %2 ]
  call void @llvm.lifetime.end.p0(i64 4, ptr nonnull %3) #5
  ret i32 %.0
}